target datalayout = "e-m:e-p270:32:32-p271:32:32-p272:64:64-i64:64-i128:128-f80:128-n8:16:32:64-S128"
target triple = "x86_64-pc-linux-gnu"

%struct.SDL_Surface = type { i32, i32, i32, i32, i32, ptr, i32, ptr, i32, i32, ptr, i32, ptr, i32, ptr, i32, %struct.SDL_Rect, %struct.SDL_BlitMap }
%struct.SDL_Rect = type { i32, i32, i32, i32 }
%struct.SDL_BlitMap = type { i32, ptr, ptr, %struct.SDL_BlitInfo, i32, i32 }
%struct.SDL_BlitInfo = type { ptr, ptr, i32, i32, i32, i32, ptr, ptr, i32, i32, i32, i32, ptr, ptr, ptr, ptr, ptr, ptr, i32, i32, i8, i8, i8, i8 }
%struct.SDL_PixelFormatDetails = type { i32, i8, i8, [2 x i8], i32, i32, i32, i32, i8, i8, i8, i8, i8, i8, i8, i8 }

; Function Attrs: nounwind uwtable
define hidden ptr @SDL_CalculateBlitA(ptr noundef %0) #0 {
  %2 = alloca ptr, align 8
  %3 = alloca ptr, align 8
  %4 = alloca ptr, align 8
  %5 = alloca ptr, align 8
  %6 = alloca i32, align 4
  store ptr %0, ptr %3, align 8
  call void @llvm.lifetime.start.p0(i64 8, ptr %4) #3
  %7 = load ptr, ptr %3, align 8
  %8 = getelementptr inbounds nuw %struct.SDL_Surface, ptr %7, i32 0, i32 10
  %9 = load ptr, ptr %8, align 8
  store ptr %9, ptr %4, align 8
  call void @llvm.lifetime.start.p0(i64 8, ptr %5) #3
  %10 = load ptr, ptr %3, align 8
  %11 = getelementptr inbounds nuw %struct.SDL_Surface, ptr %10, i32 0, i32 17
  %12 = getelementptr inbounds nuw %struct.SDL_BlitMap, ptr %11, i32 0, i32 3
  %13 = getelementptr inbounds nuw %struct.SDL_BlitInfo, ptr %12, i32 0, i32 14
  %14 = load ptr, ptr %13, align 8
  store ptr %14, ptr %5, align 8
  %15 = load ptr, ptr %3, align 8
  %16 = getelementptr inbounds nuw %struct.SDL_Surface, ptr %15, i32 0, i32 17
  %17 = getelementptr inbounds nuw %struct.SDL_BlitMap, ptr %16, i32 0, i32 3
  %18 = getelementptr inbounds nuw %struct.SDL_BlitInfo, ptr %17, i32 0, i32 18
  %19 = load i32, ptr %18, align 8
  %20 = and i32 %19, -28673
  switch i32 %20, label %235 [
    i32 16, label %21
    i32 18, label %124
    i32 1042, label %213
  ]

21:                                               ; preds = %1
  %22 = load ptr, ptr %5, align 8
  %23 = getelementptr inbounds nuw %struct.SDL_PixelFormatDetails, ptr %22, i32 0, i32 2
  %24 = load i8, ptr %23, align 1
  %25 = zext i8 %24 to i32
  switch i32 %25, label %122 [
    i32 1, label %26
    i32 2, label %35
    i32 4, label %91
    i32 3, label %121
  ]

26:                                               ; preds = %21
  %27 = load ptr, ptr %3, align 8
  %28 = getelementptr inbounds nuw %struct.SDL_Surface, ptr %27, i32 0, i32 17
  %29 = getelementptr inbounds nuw %struct.SDL_BlitMap, ptr %28, i32 0, i32 3
  %30 = getelementptr inbounds nuw %struct.SDL_BlitInfo, ptr %29, i32 0, i32 15
  %31 = load ptr, ptr %30, align 8
  %32 = icmp ne ptr %31, null
  br i1 %32, label %33, label %34

33:                                               ; preds = %26
  store ptr @BlitNto1PixelAlpha, ptr %2, align 8
  store i32 1, ptr %6, align 4
  br label %236

34:                                               ; preds = %26
  store ptr @BlitNtoNPixelAlpha, ptr %2, align 8
  store i32 1, ptr %6, align 4
  br label %236

35:                                               ; preds = %21
  %36 = load ptr, ptr %4, align 8
  %37 = getelementptr inbounds nuw %struct.SDL_PixelFormatDetails, ptr %36, i32 0, i32 2
  %38 = load i8, ptr %37, align 1
  %39 = zext i8 %38 to i32
  %40 = icmp eq i32 %39, 4
  br i1 %40, label %41, label %90

41:                                               ; preds = %35
  %42 = load ptr, ptr %4, align 8
  %43 = getelementptr inbounds nuw %struct.SDL_PixelFormatDetails, ptr %42, i32 0, i32 7
  %44 = load i32, ptr %43, align 4
  %45 = icmp eq i32 %44, -16777216
  br i1 %45, label %46, label %90

46:                                               ; preds = %41
  %47 = load ptr, ptr %4, align 8
  %48 = getelementptr inbounds nuw %struct.SDL_PixelFormatDetails, ptr %47, i32 0, i32 5
  %49 = load i32, ptr %48, align 4
  %50 = icmp eq i32 %49, 65280
  br i1 %50, label %51, label %90

51:                                               ; preds = %46
  %52 = load ptr, ptr %4, align 8
  %53 = getelementptr inbounds nuw %struct.SDL_PixelFormatDetails, ptr %52, i32 0, i32 4
  %54 = load i32, ptr %53, align 4
  %55 = icmp eq i32 %54, 255
  br i1 %55, label %56, label %61

56:                                               ; preds = %51
  %57 = load ptr, ptr %5, align 8
  %58 = getelementptr inbounds nuw %struct.SDL_PixelFormatDetails, ptr %57, i32 0, i32 4
  %59 = load i32, ptr %58, align 4
  %60 = icmp eq i32 %59, 31
  br i1 %60, label %71, label %61

61:                                               ; preds = %56, %51
  %62 = load ptr, ptr %4, align 8
  %63 = getelementptr inbounds nuw %struct.SDL_PixelFormatDetails, ptr %62, i32 0, i32 6
  %64 = load i32, ptr %63, align 4
  %65 = icmp eq i32 %64, 255
  br i1 %65, label %66, label %90

66:                                               ; preds = %61
  %67 = load ptr, ptr %5, align 8
  %68 = getelementptr inbounds nuw %struct.SDL_PixelFormatDetails, ptr %67, i32 0, i32 6
  %69 = load i32, ptr %68, align 4
  %70 = icmp eq i32 %69, 31
  br i1 %70, label %71, label %90

71:                                               ; preds = %66, %56
  %72 = load ptr, ptr %5, align 8
  %73 = getelementptr inbounds nuw %struct.SDL_PixelFormatDetails, ptr %72, i32 0, i32 5
  %74 = load i32, ptr %73, align 4
  %75 = icmp eq i32 %74, 2016
  br i1 %75, label %76, label %77

76:                                               ; preds = %71
  store ptr @BlitARGBto565PixelAlpha, ptr %2, align 8
  store i32 1, ptr %6, align 4
  br label %236

77:                                               ; preds = %71
  %78 = load ptr, ptr %5, align 8
  %79 = getelementptr inbounds nuw %struct.SDL_PixelFormatDetails, ptr %78, i32 0, i32 5
  %80 = load i32, ptr %79, align 4
  %81 = icmp eq i32 %80, 992
  br i1 %81, label %82, label %88

82:                                               ; preds = %77
  %83 = load ptr, ptr %5, align 8
  %84 = getelementptr inbounds nuw %struct.SDL_PixelFormatDetails, ptr %83, i32 0, i32 7
  %85 = load i32, ptr %84, align 4
  %86 = icmp ne i32 %85, 0
  br i1 %86, label %88, label %87

87:                                               ; preds = %82
  store ptr @BlitARGBto555PixelAlpha, ptr %2, align 8
  store i32 1, ptr %6, align 4
  br label %236

88:                                               ; preds = %82, %77
  br label %89

89:                                               ; preds = %88
  br label %90

90:                                               ; preds = %89, %66, %61, %46, %41, %35
  store ptr @BlitNtoNPixelAlpha, ptr %2, align 8
  store i32 1, ptr %6, align 4
  br label %236

91:                                               ; preds = %21
  %92 = load ptr, ptr %4, align 8
  %93 = getelementptr inbounds nuw %struct.SDL_PixelFormatDetails, ptr %92, i32 0, i32 0
  %94 = load i32, ptr %93, align 4
  %95 = lshr i32 %94, 16
  %96 = and i32 %95, 15
  %97 = icmp eq i32 %96, 6
  br i1 %97, label %98, label %120

98:                                               ; preds = %91
  %99 = load ptr, ptr %4, align 8
  %100 = getelementptr inbounds nuw %struct.SDL_PixelFormatDetails, ptr %99, i32 0, i32 7
  %101 = load i32, ptr %100, align 4
  %102 = icmp ne i32 %101, 0
  br i1 %102, label %103, label %120

103:                                              ; preds = %98
  %104 = load ptr, ptr %5, align 8
  %105 = getelementptr inbounds nuw %struct.SDL_PixelFormatDetails, ptr %104, i32 0, i32 0
  %106 = load i32, ptr %105, align 4
  %107 = lshr i32 %106, 16
  %108 = and i32 %107, 15
  %109 = icmp eq i32 %108, 6
  br i1 %109, label %110, label %120

110:                                              ; preds = %103
  %111 = load ptr, ptr %4, align 8
  %112 = getelementptr inbounds nuw %struct.SDL_PixelFormatDetails, ptr %111, i32 0, i32 0
  %113 = load i32, ptr %112, align 4
  %114 = load ptr, ptr %5, align 8
  %115 = getelementptr inbounds nuw %struct.SDL_PixelFormatDetails, ptr %114, i32 0, i32 0
  %116 = load i32, ptr %115, align 4
  %117 = icmp eq i32 %113, %116
  br i1 %117, label %118, label %119

118:                                              ; preds = %110
  store ptr @Blit8888to8888PixelAlpha, ptr %2, align 8
  store i32 1, ptr %6, align 4
  br label %236

119:                                              ; preds = %110
  store ptr @Blit8888to8888PixelAlphaSwizzle, ptr %2, align 8
  store i32 1, ptr %6, align 4
  br label %236

120:                                              ; preds = %103, %98, %91
  store ptr @BlitNtoNPixelAlpha, ptr %2, align 8
  store i32 1, ptr %6, align 4
  br label %236

121:                                              ; preds = %21
  br label %122

122:                                              ; preds = %21, %121
  br label %123

123:                                              ; preds = %122
  store ptr @BlitNtoNPixelAlpha, ptr %2, align 8
  store i32 1, ptr %6, align 4
  br label %236

124:                                              ; preds = %1
  %125 = load ptr, ptr %4, align 8
  %126 = getelementptr inbounds nuw %struct.SDL_PixelFormatDetails, ptr %125, i32 0, i32 7
  %127 = load i32, ptr %126, align 4
  %128 = icmp eq i32 %127, 0
  br i1 %128, label %129, label %212

129:                                              ; preds = %124
  %130 = load ptr, ptr %5, align 8
  %131 = getelementptr inbounds nuw %struct.SDL_PixelFormatDetails, ptr %130, i32 0, i32 2
  %132 = load i8, ptr %131, align 1
  %133 = zext i8 %132 to i32
  switch i32 %133, label %211 [
    i32 1, label %134
    i32 2, label %143
    i32 4, label %164
    i32 3, label %210
  ]

134:                                              ; preds = %129
  %135 = load ptr, ptr %3, align 8
  %136 = getelementptr inbounds nuw %struct.SDL_Surface, ptr %135, i32 0, i32 17
  %137 = getelementptr inbounds nuw %struct.SDL_BlitMap, ptr %136, i32 0, i32 3
  %138 = getelementptr inbounds nuw %struct.SDL_BlitInfo, ptr %137, i32 0, i32 15
  %139 = load ptr, ptr %138, align 8
  %140 = icmp ne ptr %139, null
  br i1 %140, label %141, label %142

141:                                              ; preds = %134
  store ptr @BlitNto1SurfaceAlpha, ptr %2, align 8
  store i32 1, ptr %6, align 4
  br label %236

142:                                              ; preds = %134
  store ptr @BlitNtoNSurfaceAlpha, ptr %2, align 8
  store i32 1, ptr %6, align 4
  br label %236

143:                                              ; preds = %129
  %144 = load ptr, ptr %3, align 8
  %145 = getelementptr inbounds nuw %struct.SDL_Surface, ptr %144, i32 0, i32 17
  %146 = getelementptr inbounds nuw %struct.SDL_BlitMap, ptr %145, i32 0, i32 0
  %147 = load i32, ptr %146, align 8
  %148 = icmp ne i32 %147, 0
  br i1 %148, label %149, label %163

149:                                              ; preds = %143
  %150 = load ptr, ptr %5, align 8
  %151 = getelementptr inbounds nuw %struct.SDL_PixelFormatDetails, ptr %150, i32 0, i32 5
  %152 = load i32, ptr %151, align 4
  %153 = icmp eq i32 %152, 2016
  br i1 %153, label %154, label %155

154:                                              ; preds = %149
  store ptr @Blit565to565SurfaceAlpha, ptr %2, align 8
  store i32 1, ptr %6, align 4
  br label %236

155:                                              ; preds = %149
  %156 = load ptr, ptr %5, align 8
  %157 = getelementptr inbounds nuw %struct.SDL_PixelFormatDetails, ptr %156, i32 0, i32 5
  %158 = load i32, ptr %157, align 4
  %159 = icmp eq i32 %158, 992
  br i1 %159, label %160, label %161

160:                                              ; preds = %155
  store ptr @Blit555to555SurfaceAlpha, ptr %2, align 8
  store i32 1, ptr %6, align 4
  br label %236

161:                                              ; preds = %155
  br label %162

162:                                              ; preds = %161
  br label %163

163:                                              ; preds = %162, %143
  store ptr @BlitNtoNSurfaceAlpha, ptr %2, align 8
  store i32 1, ptr %6, align 4
  br label %236

164:                                              ; preds = %129
  %165 = load ptr, ptr %4, align 8
  %166 = getelementptr inbounds nuw %struct.SDL_PixelFormatDetails, ptr %165, i32 0, i32 4
  %167 = load i32, ptr %166, align 4
  %168 = load ptr, ptr %5, align 8
  %169 = getelementptr inbounds nuw %struct.SDL_PixelFormatDetails, ptr %168, i32 0, i32 4
  %170 = load i32, ptr %169, align 4
  %171 = icmp eq i32 %167, %170
  br i1 %171, label %172, label %209

172:                                              ; preds = %164
  %173 = load ptr, ptr %4, align 8
  %174 = getelementptr inbounds nuw %struct.SDL_PixelFormatDetails, ptr %173, i32 0, i32 5
  %175 = load i32, ptr %174, align 4
  %176 = load ptr, ptr %5, align 8
  %177 = getelementptr inbounds nuw %struct.SDL_PixelFormatDetails, ptr %176, i32 0, i32 5
  %178 = load i32, ptr %177, align 4
  %179 = icmp eq i32 %175, %178
  br i1 %179, label %180, label %209

180:                                              ; preds = %172
  %181 = load ptr, ptr %4, align 8
  %182 = getelementptr inbounds nuw %struct.SDL_PixelFormatDetails, ptr %181, i32 0, i32 6
  %183 = load i32, ptr %182, align 4
  %184 = load ptr, ptr %5, align 8
  %185 = getelementptr inbounds nuw %struct.SDL_PixelFormatDetails, ptr %184, i32 0, i32 6
  %186 = load i32, ptr %185, align 4
  %187 = icmp eq i32 %183, %186
  br i1 %187, label %188, label %209

188:                                              ; preds = %180
  %189 = load ptr, ptr %4, align 8
  %190 = getelementptr inbounds nuw %struct.SDL_PixelFormatDetails, ptr %189, i32 0, i32 2
  %191 = load i8, ptr %190, align 1
  %192 = zext i8 %191 to i32
  %193 = icmp eq i32 %192, 4
  br i1 %193, label %194, label %209

194:                                              ; preds = %188
  %195 = load ptr, ptr %4, align 8
  %196 = getelementptr inbounds nuw %struct.SDL_PixelFormatDetails, ptr %195, i32 0, i32 4
  %197 = load i32, ptr %196, align 4
  %198 = load ptr, ptr %4, align 8
  %199 = getelementptr inbounds nuw %struct.SDL_PixelFormatDetails, ptr %198, i32 0, i32 5
  %200 = load i32, ptr %199, align 4
  %201 = or i32 %197, %200
  %202 = load ptr, ptr %4, align 8
  %203 = getelementptr inbounds nuw %struct.SDL_PixelFormatDetails, ptr %202, i32 0, i32 6
  %204 = load i32, ptr %203, align 4
  %205 = or i32 %201, %204
  %206 = icmp eq i32 %205, 16777215
  br i1 %206, label %207, label %208

207:                                              ; preds = %194
  store ptr @BlitRGBtoRGBSurfaceAlpha, ptr %2, align 8
  store i32 1, ptr %6, align 4
  br label %236

208:                                              ; preds = %194
  br label %209

209:                                              ; preds = %208, %188, %180, %172, %164
  store ptr @BlitNtoNSurfaceAlpha, ptr %2, align 8
  store i32 1, ptr %6, align 4
  br label %236

210:                                              ; preds = %129
  br label %211

211:                                              ; preds = %129, %210
  store ptr @BlitNtoNSurfaceAlpha, ptr %2, align 8
  store i32 1, ptr %6, align 4
  br label %236

212:                                              ; preds = %124
  br label %235

213:                                              ; preds = %1
  %214 = load ptr, ptr %4, align 8
  %215 = getelementptr inbounds nuw %struct.SDL_PixelFormatDetails, ptr %214, i32 0, i32 7
  %216 = load i32, ptr %215, align 4
  %217 = icmp eq i32 %216, 0
  br i1 %217, label %218, label %234

218:                                              ; preds = %213
  %219 = load ptr, ptr %5, align 8
  %220 = getelementptr inbounds nuw %struct.SDL_PixelFormatDetails, ptr %219, i32 0, i32 2
  %221 = load i8, ptr %220, align 1
  %222 = zext i8 %221 to i32
  %223 = icmp eq i32 %222, 1
  br i1 %223, label %224, label %233

224:                                              ; preds = %218
  %225 = load ptr, ptr %3, align 8
  %226 = getelementptr inbounds nuw %struct.SDL_Surface, ptr %225, i32 0, i32 17
  %227 = getelementptr inbounds nuw %struct.SDL_BlitMap, ptr %226, i32 0, i32 3
  %228 = getelementptr inbounds nuw %struct.SDL_BlitInfo, ptr %227, i32 0, i32 15
  %229 = load ptr, ptr %228, align 8
  %230 = icmp ne ptr %229, null
  br i1 %230, label %231, label %232

231:                                              ; preds = %224
  store ptr @BlitNto1SurfaceAlphaKey, ptr %2, align 8
  store i32 1, ptr %6, align 4
  br label %236

232:                                              ; preds = %224
  store ptr @BlitNtoNSurfaceAlphaKey, ptr %2, align 8
  store i32 1, ptr %6, align 4
  br label %236

233:                                              ; preds = %218
  store ptr @BlitNtoNSurfaceAlphaKey, ptr %2, align 8
  store i32 1, ptr %6, align 4
  br label %236

234:                                              ; preds = %213
  br label %235

235:                                              ; preds = %1, %234, %212
  store ptr null, ptr %2, align 8
  store i32 1, ptr %6, align 4
  br label %236

236:                                              ; preds = %235, %233, %232, %231, %211, %209, %207, %163, %160, %154, %142, %141, %123, %120, %119, %118, %90, %87, %76, %34, %33
  call void @llvm.lifetime.end.p0(i64 8, ptr %5) #3
  call void @llvm.lifetime.end.p0(i64 8, ptr %4) #3
  %237 = load ptr, ptr %2, align 8
  ret ptr %237
}