; Function Attrs: mustprogress nofree norecurse nosync nounwind willreturn memory(read, inaccessiblemem: none) uwtable
define hidden ptr @SDL_CalculateBlitA(ptr noundef readonly captures(none) %0) local_unnamed_addr #0 {
  %2 = getelementptr inbounds nuw i8, ptr %0, i64 56
  %3 = load ptr, ptr %2, align 8
  %4 = getelementptr inbounds nuw i8, ptr %0, i64 120
  %5 = getelementptr inbounds nuw i8, ptr %0, i64 224
  %6 = load ptr, ptr %5, align 8
  %7 = getelementptr inbounds nuw i8, ptr %0, i64 256
  %8 = load i32, ptr %7, align 8
  %9 = and i32 %8, -28673
  switch i32 %9, label %117 [
    i32 16, label %10
    i32 18, label %64
    i32 1042, label %106
  ]

10:                                               ; preds = %1
  %11 = getelementptr inbounds nuw i8, ptr %6, i64 5
  %12 = load i8, ptr %11, align 1
  switch i8 %12, label %117 [
    i8 1, label %13
    i8 2, label %16
    i8 4, label %51
  ]

13:                                               ; preds = %10
  %14 = getelementptr inbounds nuw i8, ptr %0, i64 232
  %15 = load ptr, ptr %14, align 8
  %.not49 = icmp eq ptr %15, null
  %BlitNtoNPixelAlpha.BlitNto1PixelAlpha = select i1 %.not49, ptr @BlitNtoNPixelAlpha, ptr @BlitNto1PixelAlpha
  br label %117

16:                                               ; preds = %10
  %17 = getelementptr inbounds nuw i8, ptr %3, i64 5
  %18 = load i8, ptr %17, align 1
  %19 = icmp eq i8 %18, 4
  br i1 %19, label %20, label %50

20:                                               ; preds = %16
  %21 = getelementptr inbounds nuw i8, ptr %3, i64 20
  %22 = load i32, ptr %21, align 4
  %23 = icmp eq i32 %22, -16777216
  br i1 %23, label %24, label %50

24:                                               ; preds = %20
  %25 = getelementptr inbounds nuw i8, ptr %3, i64 12
  %26 = load i32, ptr %25, align 4
  %27 = icmp eq i32 %26, 65280
  br i1 %27, label %28, label %50

28:                                               ; preds = %24
  %29 = getelementptr inbounds nuw i8, ptr %3, i64 8
  %30 = load i32, ptr %29, align 4
  %31 = icmp eq i32 %30, 255
  br i1 %31, label %32, label %36

32:                                               ; preds = %28
  %33 = getelementptr inbounds nuw i8, ptr %6, i64 8
  %34 = load i32, ptr %33, align 4
  %35 = icmp eq i32 %34, 31
  br i1 %35, label %44, label %36

36:                                               ; preds = %32, %28
  %37 = getelementptr inbounds nuw i8, ptr %3, i64 16
  %38 = load i32, ptr %37, align 4
  %39 = icmp eq i32 %38, 255
  br i1 %39, label %40, label %50

40:                                               ; preds = %36
  %41 = getelementptr inbounds nuw i8, ptr %6, i64 16
  %42 = load i32, ptr %41, align 4
  %43 = icmp eq i32 %42, 31
  br i1 %43, label %44, label %50

44:                                               ; preds = %40, %32
  %45 = getelementptr inbounds nuw i8, ptr %6, i64 12
  %46 = load i32, ptr %45, align 4
  switch i32 %46, label %50 [
    i32 2016, label %117
    i32 992, label %47
  ]

47:                                               ; preds = %44
  %48 = getelementptr inbounds nuw i8, ptr %6, i64 20
  %49 = load i32, ptr %48, align 4
  %.not48 = icmp eq i32 %49, 0
  br i1 %.not48, label %117, label %50

50:                                               ; preds = %44, %47, %40, %36, %24, %20, %16
  br label %117

51:                                               ; preds = %10
  %52 = load i32, ptr %3, align 4
  %53 = and i32 %52, 983040
  %54 = icmp eq i32 %53, 393216
  br i1 %54, label %55, label %117

55:                                               ; preds = %51
  %56 = getelementptr inbounds nuw i8, ptr %3, i64 20
  %57 = load i32, ptr %56, align 4
  %.not47 = icmp eq i32 %57, 0
  br i1 %.not47, label %117, label %58

58:                                               ; preds = %55
  %59 = load i32, ptr %6, align 4
  %60 = and i32 %59, 983040
  %61 = icmp eq i32 %60, 393216
  br i1 %61, label %62, label %117

62:                                               ; preds = %58
  %63 = icmp eq i32 %52, %59
  %Blit8888to8888PixelAlpha.Blit8888to8888PixelAlphaSwizzle = select i1 %63, ptr @Blit8888to8888PixelAlpha, ptr @Blit8888to8888PixelAlphaSwizzle
  br label %117

64:                                               ; preds = %1
  %65 = getelementptr inbounds nuw i8, ptr %3, i64 20
  %66 = load i32, ptr %65, align 4
  %67 = icmp eq i32 %66, 0
  br i1 %67, label %68, label %117

68:                                               ; preds = %64
  %69 = getelementptr inbounds nuw i8, ptr %6, i64 5
  %70 = load i8, ptr %69, align 1
  switch i8 %70, label %117 [
    i8 1, label %71
    i8 2, label %74
    i8 4, label %79
  ]

71:                                               ; preds = %68
  %72 = getelementptr inbounds nuw i8, ptr %0, i64 232
  %73 = load ptr, ptr %72, align 8
  %.not46 = icmp eq ptr %73, null
  %BlitNtoNSurfaceAlpha.BlitNto1SurfaceAlpha = select i1 %.not46, ptr @BlitNtoNSurfaceAlpha, ptr @BlitNto1SurfaceAlpha
  br label %117

74:                                               ; preds = %68
  %75 = load i32, ptr %4, align 8
  %.not45 = icmp eq i32 %75, 0
  br i1 %.not45, label %117, label %76

76:                                               ; preds = %74
  %77 = getelementptr inbounds nuw i8, ptr %6, i64 12
  %78 = load i32, ptr %77, align 4
  %switch.selectcmp = icmp eq i32 %78, 992
  %switch.select = select i1 %switch.selectcmp, ptr @Blit555to555SurfaceAlpha, ptr @BlitNtoNSurfaceAlpha
  %switch.selectcmp50 = icmp eq i32 %78, 2016
  %switch.select51 = select i1 %switch.selectcmp50, ptr @Blit565to565SurfaceAlpha, ptr %switch.select
  br label %117

79:                                               ; preds = %68
  %80 = getelementptr inbounds nuw i8, ptr %3, i64 8
  %81 = load i32, ptr %80, align 4
  %82 = getelementptr inbounds nuw i8, ptr %6, i64 8
  %83 = load i32, ptr %82, align 4
  %84 = icmp eq i32 %81, %83
  br i1 %84, label %85, label %105

85:                                               ; preds = %79
  %86 = getelementptr inbounds nuw i8, ptr %3, i64 12
  %87 = load i32, ptr %86, align 4
  %88 = getelementptr inbounds nuw i8, ptr %6, i64 12
  %89 = load i32, ptr %88, align 4
  %90 = icmp eq i32 %87, %89
  br i1 %90, label %91, label %105

91:                                               ; preds = %85
  %92 = getelementptr inbounds nuw i8, ptr %3, i64 16
  %93 = load i32, ptr %92, align 4
  %94 = getelementptr inbounds nuw i8, ptr %6, i64 16
  %95 = load i32, ptr %94, align 4
  %96 = icmp eq i32 %93, %95
  br i1 %96, label %97, label %105

97:                                               ; preds = %91
  %98 = getelementptr inbounds nuw i8, ptr %3, i64 5
  %99 = load i8, ptr %98, align 1
  %100 = icmp eq i8 %99, 4
  br i1 %100, label %101, label %105

101:                                              ; preds = %97
  %102 = or i32 %87, %81
  %103 = or i32 %102, %93
  %104 = icmp eq i32 %103, 16777215
  br i1 %104, label %117, label %105

105:                                              ; preds = %101, %97, %91, %85, %79
  br label %117

106:                                              ; preds = %1
  %107 = getelementptr inbounds nuw i8, ptr %3, i64 20
  %108 = load i32, ptr %107, align 4
  %109 = icmp eq i32 %108, 0
  br i1 %109, label %110, label %117

110:                                              ; preds = %106
  %111 = getelementptr inbounds nuw i8, ptr %6, i64 5
  %112 = load i8, ptr %111, align 1
  %113 = icmp eq i8 %112, 1
  br i1 %113, label %114, label %117

114:                                              ; preds = %110
  %115 = getelementptr inbounds nuw i8, ptr %0, i64 232
  %116 = load ptr, ptr %115, align 8
  %.not = icmp eq ptr %116, null
  %BlitNtoNSurfaceAlphaKey.BlitNto1SurfaceAlphaKey = select i1 %.not, ptr @BlitNtoNSurfaceAlphaKey, ptr @BlitNto1SurfaceAlphaKey
  br label %117

117:                                              ; preds = %74, %76, %1, %64, %106, %110, %114, %68, %101, %71, %10, %51, %55, %58, %62, %47, %44, %13, %105, %50
  %.0 = phi ptr [ @BlitNtoNSurfaceAlpha, %105 ], [ @BlitNtoNPixelAlpha, %50 ], [ %BlitNtoNPixelAlpha.BlitNto1PixelAlpha, %13 ], [ @BlitARGBto565PixelAlpha, %44 ], [ @BlitARGBto555PixelAlpha, %47 ], [ %Blit8888to8888PixelAlpha.Blit8888to8888PixelAlphaSwizzle, %62 ], [ @BlitNtoNPixelAlpha, %58 ], [ @BlitNtoNPixelAlpha, %55 ], [ @BlitNtoNPixelAlpha, %51 ], [ @BlitNtoNPixelAlpha, %10 ], [ %BlitNtoNSurfaceAlpha.BlitNto1SurfaceAlpha, %71 ], [ @BlitRGBtoRGBSurfaceAlpha, %101 ], [ @BlitNtoNSurfaceAlpha, %68 ], [ %BlitNtoNSurfaceAlphaKey.BlitNto1SurfaceAlphaKey, %114 ], [ @BlitNtoNSurfaceAlphaKey, %110 ], [ null, %106 ], [ null, %64 ], [ null, %1 ], [ %switch.select51, %76 ], [ @BlitNtoNSurfaceAlpha, %74 ]
  ret ptr %.0
}